target datalayout = "e-m:e-p270:32:32-p271:32:32-p272:64:64-i64:64-i128:128-f80:128-n8:16:32:64-S128"
target triple = "x86_64-pc-linux-gnu"

%struct.DdManager = type { %struct.DdNode, ptr, ptr, ptr, ptr, ptr, ptr, ptr, i32, i32, double, double, double, i32, i32, i32, i32, i32, i32, ptr, ptr, %struct.DdSubtable, i32, i32, i32, i32, i32, i32, i32, double, i32, i32, i32, ptr, i64, double, i32, ptr, ptr, ptr, ptr, ptr, ptr, ptr, i32, ptr, ptr, ptr, ptr, ptr, ptr, i32, i32, i32, double, i32, i32, i32, i32, double, double, i32, i32, i32, i32, i32, i32, i32, i32, i32, ptr, ptr, i32, i32, i32, i32, i32, i32, ptr, ptr, ptr, ptr, ptr, ptr, ptr, ptr, i32, i64, i64, i64, i32, i64, i64, double, double, double, double, double, double, i32, ptr, ptr, i64 }
%struct.DdNode = type { i32, i32, ptr, %union.anon, i64 }
%union.anon = type { %struct.DdChildren }
%struct.DdChildren = type { ptr, ptr }
%struct.DdSubtable = type { ptr, i32, i32, i32, i32, i32, i32, i32, i32, i32, i32, i32 }

; Function Attrs: nounwind uwtable
define i32 @Extra_bddCheckVarsSymmetricNaive(ptr noundef %0, ptr noundef %1, i32 noundef %2, i32 noundef %3) #0 {
  %5 = alloca ptr, align 8
  %6 = alloca ptr, align 8
  %7 = alloca i32, align 4
  %8 = alloca i32, align 4
  %9 = alloca ptr, align 8
  %10 = alloca ptr, align 8
  %11 = alloca ptr, align 8
  %12 = alloca ptr, align 8
  %13 = alloca i32, align 4
  store ptr %0, ptr %5, align 8, !tbaa !3
  store ptr %1, ptr %6, align 8, !tbaa !8
  store i32 %2, ptr %7, align 4, !tbaa !31
  store i32 %3, ptr %8, align 4, !tbaa !31
  call void @llvm.lifetime.start.p0(i64 8, ptr %9) #6
  call void @llvm.lifetime.start.p0(i64 8, ptr %10) #6
  call void @llvm.lifetime.start.p0(i64 8, ptr %11) #6
  call void @llvm.lifetime.start.p0(i64 8, ptr %12) #6
  call void @llvm.lifetime.start.p0(i64 4, ptr %13) #6
  %14 = load ptr, ptr %5, align 8, !tbaa !3
  %15 = load ptr, ptr %5, align 8, !tbaa !3
  %16 = getelementptr inbounds nuw %struct.DdManager, ptr %15, i32 0, i32 41
  %17 = load ptr, ptr %16, align 8, !tbaa !64
  %18 = load i32, ptr %7, align 4, !tbaa !31
  %19 = sext i32 %18 to i64
  %20 = getelementptr inbounds ptr, ptr %17, i64 %19
  %21 = load ptr, ptr %20, align 8, !tbaa !8
  %22 = ptrtoint ptr %21 to i64
  %23 = xor i64 %22, 1
  %24 = inttoptr i64 %23 to ptr
  %25 = load ptr, ptr %5, align 8, !tbaa !3
  %26 = getelementptr inbounds nuw %struct.DdManager, ptr %25, i32 0, i32 41
  %27 = load ptr, ptr %26, align 8, !tbaa !64
  %28 = load i32, ptr %8, align 4, !tbaa !31
  %29 = sext i32 %28 to i64
  %30 = getelementptr inbounds ptr, ptr %27, i64 %29
  %31 = load ptr, ptr %30, align 8, !tbaa !8
  %32 = call ptr @Cudd_bddAnd(ptr noundef %14, ptr noundef %24, ptr noundef %31)
  store ptr %32, ptr %9, align 8, !tbaa !8
  %33 = load ptr, ptr %9, align 8, !tbaa !8
  call void @Cudd_Ref(ptr noundef %33)
  %34 = load ptr, ptr %5, align 8, !tbaa !3
  %35 = load ptr, ptr %5, align 8, !tbaa !3
  %36 = getelementptr inbounds nuw %struct.DdManager, ptr %35, i32 0, i32 41
  %37 = load ptr, ptr %36, align 8, !tbaa !64
  %38 = load i32, ptr %8, align 4, !tbaa !31
  %39 = sext i32 %38 to i64
  %40 = getelementptr inbounds ptr, ptr %37, i64 %39
  %41 = load ptr, ptr %40, align 8, !tbaa !8
  %42 = ptrtoint ptr %41 to i64
  %43 = xor i64 %42, 1
  %44 = inttoptr i64 %43 to ptr
  %45 = load ptr, ptr %5, align 8, !tbaa !3
  %46 = getelementptr inbounds nuw %struct.DdManager, ptr %45, i32 0, i32 41
  %47 = load ptr, ptr %46, align 8, !tbaa !64
  %48 = load i32, ptr %7, align 4, !tbaa !31
  %49 = sext i32 %48 to i64
  %50 = getelementptr inbounds ptr, ptr %47, i64 %49
  %51 = load ptr, ptr %50, align 8, !tbaa !8
  %52 = call ptr @Cudd_bddAnd(ptr noundef %34, ptr noundef %44, ptr noundef %51)
  store ptr %52, ptr %10, align 8, !tbaa !8
  %53 = load ptr, ptr %10, align 8, !tbaa !8
  call void @Cudd_Ref(ptr noundef %53)
  %54 = load ptr, ptr %5, align 8, !tbaa !3
  %55 = load ptr, ptr %6, align 8, !tbaa !8
  %56 = load ptr, ptr %9, align 8, !tbaa !8
  %57 = call ptr @Cudd_Cofactor(ptr noundef %54, ptr noundef %55, ptr noundef %56)
  store ptr %57, ptr %11, align 8, !tbaa !8
  %58 = load ptr, ptr %11, align 8, !tbaa !8
  call void @Cudd_Ref(ptr noundef %58)
  %59 = load ptr, ptr %5, align 8, !tbaa !3
  %60 = load ptr, ptr %6, align 8, !tbaa !8
  %61 = load ptr, ptr %10, align 8, !tbaa !8
  %62 = call ptr @Cudd_Cofactor(ptr noundef %59, ptr noundef %60, ptr noundef %61)
  store ptr %62, ptr %12, align 8, !tbaa !8
  %63 = load ptr, ptr %12, align 8, !tbaa !8
  call void @Cudd_Ref(ptr noundef %63)
  %64 = load ptr, ptr %12, align 8, !tbaa !8
  %65 = load ptr, ptr %11, align 8, !tbaa !8
  %66 = icmp eq ptr %64, %65
  %67 = zext i1 %66 to i32
  store i32 %67, ptr %13, align 4, !tbaa !31
  %68 = load ptr, ptr %5, align 8, !tbaa !3
  %69 = load ptr, ptr %11, align 8, !tbaa !8
  call void @Cudd_RecursiveDeref(ptr noundef %68, ptr noundef %69)
  %70 = load ptr, ptr %5, align 8, !tbaa !3
  %71 = load ptr, ptr %12, align 8, !tbaa !8
  call void @Cudd_RecursiveDeref(ptr noundef %70, ptr noundef %71)
  %72 = load ptr, ptr %5, align 8, !tbaa !3
  %73 = load ptr, ptr %9, align 8, !tbaa !8
  call void @Cudd_RecursiveDeref(ptr noundef %72, ptr noundef %73)
  %74 = load ptr, ptr %5, align 8, !tbaa !3
  %75 = load ptr, ptr %10, align 8, !tbaa !8
  call void @Cudd_RecursiveDeref(ptr noundef %74, ptr noundef %75)
  %76 = load i32, ptr %13, align 4, !tbaa !31
  call void @llvm.lifetime.end.p0(i64 4, ptr %13) #6
  call void @llvm.lifetime.end.p0(i64 8, ptr %12) #6
  call void @llvm.lifetime.end.p0(i64 8, ptr %11) #6
  call void @llvm.lifetime.end.p0(i64 8, ptr %10) #6
  call void @llvm.lifetime.end.p0(i64 8, ptr %9) #6
  ret i32 %76
}