; Function Attrs: nounwind uwtable
define range(i32 0, 2) i32 @Extra_bddCheckVarsSymmetricNaive(ptr noundef %0, ptr noundef %1, i32 noundef %2, i32 noundef %3) local_unnamed_addr #0 {
  %5 = getelementptr inbounds nuw i8, ptr %0, i64 344
  %6 = load ptr, ptr %5, align 8, !tbaa !57
  %7 = sext i32 %2 to i64
  %8 = getelementptr inbounds ptr, ptr %6, i64 %7
  %9 = load ptr, ptr %8, align 8, !tbaa !58
  %10 = ptrtoint ptr %9 to i64
  %11 = xor i64 %10, 1
  %12 = inttoptr i64 %11 to ptr
  %13 = sext i32 %3 to i64
  %14 = getelementptr inbounds ptr, ptr %6, i64 %13
  %15 = load ptr, ptr %14, align 8, !tbaa !58
  %16 = tail call ptr @Cudd_bddAnd(ptr noundef %0, ptr noundef %12, ptr noundef %15) #10
  tail call void @Cudd_Ref(ptr noundef %16) #10
  %17 = load ptr, ptr %5, align 8, !tbaa !57
  %18 = getelementptr inbounds ptr, ptr %17, i64 %13
  %19 = load ptr, ptr %18, align 8, !tbaa !58
  %20 = ptrtoint ptr %19 to i64
  %21 = xor i64 %20, 1
  %22 = inttoptr i64 %21 to ptr
  %23 = getelementptr inbounds ptr, ptr %17, i64 %7
  %24 = load ptr, ptr %23, align 8, !tbaa !58
  %25 = tail call ptr @Cudd_bddAnd(ptr noundef %0, ptr noundef %22, ptr noundef %24) #10
  tail call void @Cudd_Ref(ptr noundef %25) #10
  %26 = tail call ptr @Cudd_Cofactor(ptr noundef %0, ptr noundef %1, ptr noundef %16) #10
  tail call void @Cudd_Ref(ptr noundef %26) #10
  %27 = tail call ptr @Cudd_Cofactor(ptr noundef %0, ptr noundef %1, ptr noundef %25) #10
  tail call void @Cudd_Ref(ptr noundef %27) #10
  %28 = icmp eq ptr %27, %26
  %29 = zext i1 %28 to i32
  tail call void @Cudd_RecursiveDeref(ptr noundef %0, ptr noundef %26) #10
  tail call void @Cudd_RecursiveDeref(ptr noundef %0, ptr noundef %27) #10
  tail call void @Cudd_RecursiveDeref(ptr noundef %0, ptr noundef %16) #10
  tail call void @Cudd_RecursiveDeref(ptr noundef %0, ptr noundef %25) #10
  ret i32 %29
}